; Function Attrs: nounwind uwtable
define nonnull ptr @l_Std_Net_instDecidableEqSocketAddress___boxed(ptr noundef %0, ptr noundef %1) local_unnamed_addr #0 {
  %3 = ptrtoint ptr %0 to i64
  %4 = and i64 %3, 1
  %.not.i.i.i = icmp eq i64 %4, 0
  br i1 %.not.i.i.i, label %8, label %5

5:                                                ; preds = %2
  %6 = lshr i64 %3, 1
  %7 = trunc i64 %6 to i32
  br label %lean_obj_tag.exit.i.i

8:                                                ; preds = %2
  %9 = getelementptr i8, ptr %0, i64 4
  %.val.i.i.i = load i32, ptr %9, align 4
  %10 = lshr i32 %.val.i.i.i, 24
  br label %lean_obj_tag.exit.i.i

lean_obj_tag.exit.i.i:                            ; preds = %8, %5
  %.0.i.i.i = phi i32 [ %7, %5 ], [ %10, %8 ]
  %11 = icmp eq i32 %.0.i.i.i, 0
  %12 = ptrtoint ptr %1 to i64
  %13 = and i64 %12, 1
  %.not.i15.i.i = icmp eq i64 %13, 0
  br i1 %11, label %14, label %22

14:                                               ; preds = %lean_obj_tag.exit.i.i
  br i1 %.not.i15.i.i, label %18, label %15

15:                                               ; preds = %14
  %16 = lshr i64 %12, 1
  %17 = trunc i64 %16 to i32
  br label %lean_obj_tag.exit18.i.i

18:                                               ; preds = %14
  %19 = getelementptr i8, ptr %1, i64 4
  %.val.i17.i.i = load i32, ptr %19, align 4
  %20 = lshr i32 %.val.i17.i.i, 24
  br label %lean_obj_tag.exit18.i.i

lean_obj_tag.exit18.i.i:                          ; preds = %18, %15
  %.0.i16.i.i = phi i32 [ %17, %15 ], [ %20, %18 ]
  %21 = icmp eq i32 %.0.i16.i.i, 0
  br i1 %21, label %.sink.split.i.i, label %l_Std_Net_instDecidableEqSocketAddress.exit

22:                                               ; preds = %lean_obj_tag.exit.i.i
  br i1 %.not.i15.i.i, label %26, label %23

23:                                               ; preds = %22
  %24 = lshr i64 %12, 1
  %25 = trunc i64 %24 to i32
  br label %lean_obj_tag.exit24.i.i

26:                                               ; preds = %22
  %27 = getelementptr i8, ptr %1, i64 4
  %.val.i23.i.i = load i32, ptr %27, align 4
  %28 = lshr i32 %.val.i23.i.i, 24
  br label %lean_obj_tag.exit24.i.i

lean_obj_tag.exit24.i.i:                          ; preds = %26, %23
  %.0.i22.i.i = phi i32 [ %25, %23 ], [ %28, %26 ]
  %29 = icmp eq i32 %.0.i22.i.i, 0
  br i1 %29, label %l_Std_Net_instDecidableEqSocketAddress.exit, label %.sink.split.i.i

.sink.split.i.i:                                  ; preds = %lean_obj_tag.exit24.i.i, %lean_obj_tag.exit18.i.i
  %l___private_Init_Data_Vector_Basic_0__decEqVector____x40_Init_Data_Vector_Basic___hyg_100____at___private_Std_Net_Addr_0__Std_Net_decEqIPv6Addr____x40_Std_Net_Addr___hyg_433____spec__1___rarg___closed__1.sink.i.i = phi ptr [ @l___private_Init_Data_Vector_Basic_0__decEqVector____x40_Init_Data_Vector_Basic___hyg_100____at___private_Std_Net_Addr_0__Std_Net_decEqMACAddr____x40_Std_Net_Addr___hyg_29____spec__1___rarg___closed__1, %lean_obj_tag.exit18.i.i ], [ @l___private_Init_Data_Vector_Basic_0__decEqVector____x40_Init_Data_Vector_Basic___hyg_100____at___private_Std_Net_Addr_0__Std_Net_decEqIPv6Addr____x40_Std_Net_Addr___hyg_433____spec__1___rarg___closed__1, %lean_obj_tag.exit24.i.i ]
  %30 = getelementptr inbounds nuw i8, ptr %0, i64 8
  %31 = load ptr, ptr %30, align 8, !tbaa !4
  %32 = getelementptr inbounds nuw i8, ptr %1, i64 8
  %33 = load ptr, ptr %32, align 8, !tbaa !4
  %34 = getelementptr inbounds nuw i8, ptr %31, i64 8
  %35 = load ptr, ptr %34, align 8, !tbaa !4
  %36 = getelementptr i8, ptr %31, i64 16
  %.val12.i25.i.i = load i16, ptr %36, align 2, !tbaa !11
  %37 = getelementptr inbounds nuw i8, ptr %33, i64 8
  %38 = load ptr, ptr %37, align 8, !tbaa !4
  %39 = getelementptr i8, ptr %33, i64 16
  %.val.i26.i.i = load i16, ptr %39, align 2, !tbaa !11
  %40 = load ptr, ptr %l___private_Init_Data_Vector_Basic_0__decEqVector____x40_Init_Data_Vector_Basic___hyg_100____at___private_Std_Net_Addr_0__Std_Net_decEqIPv6Addr____x40_Std_Net_Addr___hyg_433____spec__1___rarg___closed__1.sink.i.i, align 8, !tbaa !4
  %41 = tail call zeroext i8 @l_Array_instDecidableEq___rarg(ptr noundef %40, ptr noundef %35, ptr noundef %38) #7
  %42 = icmp ne i8 %41, 0
  %43 = icmp eq i16 %.val12.i25.i.i, %.val.i26.i.i
  %narrow.i27.i.i = select i1 %42, i1 %43, i1 false
  %44 = select i1 %narrow.i27.i.i, i64 3, i64 1
  br label %l_Std_Net_instDecidableEqSocketAddress.exit

l_Std_Net_instDecidableEqSocketAddress.exit:      ; preds = %lean_obj_tag.exit18.i.i, %lean_obj_tag.exit24.i.i, %.sink.split.i.i
  %.0.shrunk.i.i = phi i64 [ 1, %lean_obj_tag.exit18.i.i ], [ 1, %lean_obj_tag.exit24.i.i ], [ %44, %.sink.split.i.i ]
  br i1 %.not.i15.i.i, label %45, label %lean_dec.exit5

45:                                               ; preds = %l_Std_Net_instDecidableEqSocketAddress.exit
  %46 = load i32, ptr %1, align 4, !tbaa !8
  %47 = icmp sgt i32 %46, 1
  br i1 %47, label %48, label %50, !prof !13

48:                                               ; preds = %45
  %49 = add nsw i32 %46, -1
  store i32 %49, ptr %1, align 4, !tbaa !8
  br label %lean_dec.exit5

50:                                               ; preds = %45
  %.not.i = icmp eq i32 %46, 0
  br i1 %.not.i, label %lean_dec.exit5, label %51

51:                                               ; preds = %50
  tail call void @lean_dec_ref_cold(ptr noundef nonnull %1) #7
  br label %lean_dec.exit5

lean_dec.exit5:                                   ; preds = %51, %50, %48, %l_Std_Net_instDecidableEqSocketAddress.exit
  br i1 %.not.i.i.i, label %52, label %lean_dec.exit

52:                                               ; preds = %lean_dec.exit5
  %53 = load i32, ptr %0, align 4, !tbaa !8
  %54 = icmp sgt i32 %53, 1
  br i1 %54, label %55, label %57, !prof !13

55:                                               ; preds = %52
  %56 = add nsw i32 %53, -1
  store i32 %56, ptr %0, align 4, !tbaa !8
  br label %lean_dec.exit

57:                                               ; preds = %52
  %.not.i6 = icmp eq i32 %53, 0
  br i1 %.not.i6, label %lean_dec.exit, label %58

58:                                               ; preds = %57
  tail call void @lean_dec_ref_cold(ptr noundef nonnull %0) #7
  br label %lean_dec.exit

lean_dec.exit:                                    ; preds = %58, %57, %55, %lean_dec.exit5
  %59 = inttoptr i64 %.0.shrunk.i.i to ptr
  ret ptr %59
}